; Function Attrs: nounwind uwtable
define internal fastcc range(i32 2, 6) i32 @exec_command_unset(ptr noundef %0, i1 noundef zeroext %1, ptr noundef %2) unnamed_addr #0 {
  %4 = tail call ptr @psql_scan_slash_option(ptr noundef %0, i32 noundef 0, ptr noundef null, i1 noundef zeroext false) #16
  %.not = icmp eq ptr %4, null
  br i1 %1, label %5, label %11

5:                                                ; preds = %3
  br i1 %.not, label %6, label %7

6:                                                ; preds = %5
  tail call void (i32, i32, ptr, ...) @pg_log_generic(i32 noundef 4, i32 noundef 0, ptr noundef nonnull @.str.157, ptr noundef %2) #16
  br label %10

7:                                                ; preds = %5
  %8 = load ptr, ptr getelementptr inbounds nuw (i8, ptr @pset, i64 384), align 8
  %9 = tail call zeroext i1 @SetVariable(ptr noundef %8, ptr noundef nonnull %4, ptr noundef null) #16
  %spec.select = select i1 %9, i32 2, i32 5
  br label %10

10:                                               ; preds = %7, %6
  %.0 = phi i32 [ 5, %6 ], [ %spec.select, %7 ]
  tail call void @free(ptr noundef %4) #16
  br label %ignore_slash_options.exit

11:                                               ; preds = %3
  br i1 %.not, label %ignore_slash_options.exit, label %.lr.ph.i

.lr.ph.i:                                         ; preds = %11, %.lr.ph.i
  %12 = phi ptr [ %13, %.lr.ph.i ], [ %4, %11 ]
  tail call void @free(ptr noundef nonnull %12) #16
  %13 = tail call ptr @psql_scan_slash_option(ptr noundef %0, i32 noundef 0, ptr noundef null, i1 noundef zeroext false) #16
  %.not.i = icmp eq ptr %13, null
  br i1 %.not.i, label %ignore_slash_options.exit, label %.lr.ph.i, !llvm.loop !10

ignore_slash_options.exit:                        ; preds = %.lr.ph.i, %11, %10
  %.1 = phi i32 [ %.0, %10 ], [ 2, %11 ], [ 2, %.lr.ph.i ]
  ret i32 %.1
}